; Function Attrs: null_pointer_is_valid sspstrong uwtable
define internal range(i32 -268435456, 268435456) i32 @dissect_MDT_ConfigurationNR_PDU(ptr noundef %0, ptr noundef %1, ptr noundef %2, ptr readnone captures(none) %3) #0 {
  %5 = alloca ptr, align 8
  %6 = alloca %struct._asn1_ctx_t, align 8
  call void @llvm.lifetime.start.p0(i64 208, ptr nonnull %6) #8
  call void @asn1_ctx_init(ptr noundef nonnull %6, i32 noundef 1, i1 noundef zeroext true, ptr noundef %1)
  %7 = load i32, ptr @hf_s1ap_MDT_ConfigurationNR_PDU, align 4
  call void @llvm.lifetime.start.p0(i64 8, ptr nonnull %5) #8
  store ptr null, ptr %5, align 8
  %8 = call i32 @dissect_per_octet_string(ptr noundef %0, i32 noundef 0, ptr noundef nonnull %6, ptr noundef %2, i32 noundef %7, i32 noundef -1, i32 noundef -1, i1 noundef zeroext false, ptr noundef nonnull %5)
  %9 = load ptr, ptr %5, align 8
  %.not.i = icmp eq ptr %9, null
  br i1 %.not.i, label %dissect_s1ap_MDT_ConfigurationNR.exit, label %10

10:                                               ; preds = %4
  %11 = getelementptr inbounds nuw i8, ptr %6, i64 24
  %12 = load ptr, ptr %11, align 8
  %13 = load i32, ptr @ett_s1ap_MDT_ConfigurationNR, align 4
  %14 = call ptr @proto_item_add_subtree(ptr noundef %12, i32 noundef %13)
  %15 = load ptr, ptr %5, align 8
  %16 = getelementptr inbounds nuw i8, ptr %6, i64 16
  %17 = load ptr, ptr %16, align 8
  %18 = call i32 @dissect_ngap_MDT_Configuration_PDU(ptr noundef %15, ptr noundef %17, ptr noundef %14, ptr noundef null)
  br label %dissect_s1ap_MDT_ConfigurationNR.exit

dissect_s1ap_MDT_ConfigurationNR.exit:            ; preds = %4, %10
  call void @llvm.lifetime.end.p0(i64 8, ptr nonnull %5) #8
  %19 = add i32 %8, 7
  %20 = ashr i32 %19, 3
  call void @llvm.lifetime.end.p0(i64 208, ptr nonnull %6) #8
  ret i32 %20
}